; Function Attrs: null_pointer_is_valid sspstrong uwtable
define internal fastcc void @control_proc_add_frame(ptr noundef %0, ptr noundef %1, ptr noundef %2, i8 noundef zeroext %3, i32 noundef range(i32 0, 4) %4, ptr noundef captures(none) %5, ptr noundef readonly captures(address_is_null) %6, i32 noundef range(i32 1, 5) %7) unnamed_addr #0 {
  %9 = getelementptr inbounds nuw i8, ptr %1, i64 20
  %10 = load i32, ptr %9, align 4
  %11 = zext nneg i32 %7 to i64
  %12 = getelementptr [5 x i32], ptr %5, i64 0, i64 %11
  store i32 %10, ptr %12, align 4
  %13 = load i32, ptr @hf_request_in_frame, align 4
  %14 = load i32, ptr %5, align 4
  %15 = tail call ptr @proto_tree_add_uint(ptr noundef %2, i32 noundef %13, ptr noundef %0, i32 noundef 0, i32 noundef 0, i32 noundef %14)
  %.not.i = icmp eq ptr %15, null
  br i1 %.not.i, label %proto_item_set_generated.exit, label %16

16:                                               ; preds = %8
  %17 = getelementptr inbounds nuw i8, ptr %15, i64 40
  %18 = load ptr, ptr %17, align 8
  %.not5.i = icmp eq ptr %18, null
  br i1 %.not5.i, label %proto_item_set_generated.exit, label %19

19:                                               ; preds = %16
  %20 = getelementptr inbounds nuw i8, ptr %18, i64 28
  %21 = load i32, ptr %20, align 4
  %22 = or i32 %21, 2
  store i32 %22, ptr %20, align 4
  br label %proto_item_set_generated.exit

proto_item_set_generated.exit:                    ; preds = %8, %16, %19
  %.not = icmp eq ptr %6, null
  br i1 %.not, label %control_proc_contains_instant.exit, label %23

23:                                               ; preds = %proto_item_set_generated.exit
  %24 = load i32, ptr %9, align 4
  %25 = getelementptr i8, ptr %6, i64 24
  %.val = load i32, ptr %25, align 4
  %.not.i21 = icmp ne i32 %.val, 0
  %26 = icmp ugt i32 %24, %.val
  %or.cond.i = and i1 %.not.i21, %26
  br i1 %or.cond.i, label %control_proc_contains_instant.exit, label %27

27:                                               ; preds = %23
  %28 = getelementptr inbounds nuw i8, ptr %5, i64 20
  %29 = load i8, ptr %28, align 4
  switch i8 %29, label %control_proc_contains_instant.exit [
    i8 0, label %30
    i8 1, label %30
    i8 15, label %30
    i8 22, label %30
  ]

30:                                               ; preds = %27, %27, %27, %27
  %31 = getelementptr inbounds nuw i8, ptr %6, i64 20
  %32 = load i8, ptr %31, align 4
  switch i8 %32, label %control_proc_contains_instant.exit [
    i8 0, label %control_proc_contains_instant.exit23
    i8 1, label %control_proc_contains_instant.exit23
    i8 15, label %control_proc_contains_instant.exit23
    i8 22, label %control_proc_contains_instant.exit23
  ]

control_proc_contains_instant.exit23:             ; preds = %30, %30, %30, %30
  %33 = icmp eq i32 %4, 1
  br i1 %33, label %switch.early.test, label %control_proc_contains_instant.exit

switch.early.test:                                ; preds = %control_proc_contains_instant.exit23
  switch i8 %3, label %34 [
    i8 17, label %control_proc_contains_instant.exit
    i8 13, label %control_proc_contains_instant.exit
  ]

34:                                               ; preds = %switch.early.test
  %35 = tail call ptr @expert_add_info(ptr noundef %1, ptr noundef %15, ptr noundef nonnull @ei_control_proc_invalid_conflict_resolution)
  br label %control_proc_contains_instant.exit

control_proc_contains_instant.exit:               ; preds = %30, %27, %switch.early.test, %switch.early.test, %34, %control_proc_contains_instant.exit23, %23, %proto_item_set_generated.exit
  ret void
}